; Function Attrs: mustprogress uwtable
define void @_ZN5Ipopt14DenseGenMatrix4CopyERKS0_(ptr noundef nonnull align 8 dereferenceable(104) initializes((88, 89)) %0, ptr noundef nonnull readonly align 8 captures(none) dereferenceable(104) %1) local_unnamed_addr #2 align 2 {
  %3 = getelementptr inbounds nuw i8, ptr %0, i64 56
  %4 = load ptr, ptr %3, align 8, !tbaa !6
  %5 = getelementptr inbounds nuw i8, ptr %4, i64 16
  %6 = load i32, ptr %5, align 8, !tbaa !31
  %7 = getelementptr inbounds nuw i8, ptr %4, i64 12
  %8 = load i32, ptr %7, align 4, !tbaa !33
  %9 = mul nsw i32 %8, %6
  %10 = getelementptr inbounds nuw i8, ptr %1, i64 80
  %11 = load ptr, ptr %10, align 8, !tbaa !34
  %12 = getelementptr inbounds nuw i8, ptr %0, i64 80
  %13 = load ptr, ptr %12, align 8, !tbaa !34
  tail call void @_ZN5Ipopt10IpBlasCopyEiPKdiPdi(i32 noundef %9, ptr noundef %11, i32 noundef 1, ptr noundef %13, i32 noundef 1)
  %14 = getelementptr inbounds nuw i8, ptr %0, i64 88
  store i8 1, ptr %14, align 8, !tbaa !35
  tail call void @_ZN5Ipopt12TaggedObject13ObjectChangedEv(ptr noundef nonnull align 8 dereferenceable(56) %0)
  ret void
}